; Function Attrs: mustprogress uwtable
define noundef zeroext i1 @_ZN8proxygen11HTTPMessage16removeQueryParamERKNSt7__cxx1112basic_stringIcSt11char_traitsIcESaIcEEE(ptr noundef nonnull align 8 dereferenceable(616) %this, ptr noundef nonnull align 8 dereferenceable(32) %name) local_unnamed_addr #2 align 2 personality ptr @__gxx_personality_v0 {
entry:
  %query = alloca %"class.std::__cxx11::basic_string", align 8
  %parsedQueryParams_ = getelementptr inbounds i8, ptr %this, i64 610
  %bf.load = load i8, ptr %parsedQueryParams_, align 2
  %0 = and i8 %bf.load, 2
  %bf.cast.not = icmp eq i8 %0, 0
  br i1 %bf.cast.not, label %if.then, label %if.end

if.then:                                          ; preds = %entry
  tail call void @_ZNK8proxygen11HTTPMessage16parseQueryParamsEv(ptr noundef nonnull align 8 dereferenceable(616) %this)
  br label %if.end

if.end:                                           ; preds = %if.then, %entry
  %queryParams_ = getelementptr inbounds i8, ptr %this, i64 432
  %call.i.i = tail call { ptr, ptr } @_ZNSt8_Rb_treeINSt7__cxx1112basic_stringIcSt11char_traitsIcESaIcEEESt4pairIKS5_S5_ESt10_Select1stIS8_ESt4lessIS5_ESaIS8_EE11equal_rangeERS7_(ptr noundef nonnull align 8 dereferenceable(48) %queryParams_, ptr noundef nonnull align 8 dereferenceable(32) %name)
  %1 = extractvalue { ptr, ptr } %call.i.i, 0
  %2 = extractvalue { ptr, ptr } %call.i.i, 1
  %_M_node_count.i.i.i = getelementptr inbounds i8, ptr %this, i64 472
  %3 = load i64, ptr %_M_node_count.i.i.i, align 8
  tail call void @_ZNSt8_Rb_treeINSt7__cxx1112basic_stringIcSt11char_traitsIcESaIcEEESt4pairIKS5_S5_ESt10_Select1stIS8_ESt4lessIS5_ESaIS8_EE12_M_erase_auxESt23_Rb_tree_const_iteratorIS8_ESG_(ptr noundef nonnull align 8 dereferenceable(48) %queryParams_, ptr %1, ptr %2)
  %4 = load i64, ptr %_M_node_count.i.i.i, align 8
  %tobool.not = icmp eq i64 %3, %4
  br i1 %tobool.not, label %return, label %if.end3

if.end3:                                          ; preds = %if.end
  %call5 = tail call noundef nonnull align 8 dereferenceable(202) ptr @_ZN8proxygen11HTTPMessage7requestEv(ptr noundef nonnull align 8 dereferenceable(616) %this)
  %query_ = getelementptr inbounds i8, ptr %call5, i64 136
  %e_.i = getelementptr inbounds i8, ptr %call5, i64 144
  %5 = load ptr, ptr %e_.i, align 8
  %6 = load ptr, ptr %query_, align 8
  %sub.ptr.lhs.cast.i = ptrtoint ptr %5 to i64
  %sub.ptr.rhs.cast.i = ptrtoint ptr %6 to i64
  %sub.ptr.sub.i = sub i64 %sub.ptr.lhs.cast.i, %sub.ptr.rhs.cast.i
  %conv = trunc i64 %sub.ptr.sub.i to i32
  call void @_ZN8proxygen11HTTPMessage17createQueryStringERKSt3mapINSt7__cxx1112basic_stringIcSt11char_traitsIcESaIcEEES7_St4lessIS7_ESaISt4pairIKS7_S7_EEEj(ptr nonnull sret(%"class.std::__cxx11::basic_string") align 8 %query, ptr noundef nonnull align 8 dereferenceable(48) %queryParams_, i32 noundef %conv)
  %call7 = invoke noundef zeroext i1 @_ZN8proxygen11HTTPMessage18setQueryStringImplERKNSt7__cxx1112basic_stringIcSt11char_traitsIcESaIcEEEbb(ptr noundef nonnull align 8 dereferenceable(616) %this, ptr noundef nonnull align 8 dereferenceable(32) %query, i1 noundef zeroext false, i1 noundef zeroext false)
          to label %invoke.cont unwind label %lpad

invoke.cont:                                      ; preds = %if.end3
  call void @_ZNSt7__cxx1112basic_stringIcSt11char_traitsIcESaIcEED1Ev(ptr noundef nonnull align 8 dereferenceable(32) %query) #23
  br label %return

lpad:                                             ; preds = %if.end3
  %7 = landingpad { ptr, i32 }
          cleanup
  call void @_ZNSt7__cxx1112basic_stringIcSt11char_traitsIcESaIcEED1Ev(ptr noundef nonnull align 8 dereferenceable(32) %query) #23
  resume { ptr, i32 } %7

return:                                           ; preds = %if.end, %invoke.cont
  %retval.0 = phi i1 [ %call7, %invoke.cont ], [ false, %if.end ]
  ret i1 %retval.0
}